; Function Attrs: null_pointer_is_valid sspstrong uwtable
define internal i32 @dissect_FMP_OpenGetMapEx_reply(ptr noundef %0, ptr readnone captures(none) %1, ptr noundef %2, ptr readnone captures(none) %3) #0 {
  %5 = alloca i32, align 4
  call void @llvm.lifetime.start.p0(i64 4, ptr nonnull %5) #3
  %6 = call fastcc i32 @dissect_fmp_status(ptr noundef %0, i32 noundef 0, ptr noundef %2, ptr noundef nonnull %5)
  %7 = load i32, ptr %5, align 4
  %8 = icmp eq i32 %7, 0
  br i1 %8, label %9, label %21

9:                                                ; preds = %4
  %10 = load i32, ptr @hf_fmp_fmpFHandle, align 4
  %11 = tail call i32 @dissect_rpc_data(ptr noundef %0, ptr noundef %2, i32 noundef %10, i32 noundef %6)
  %12 = load i32, ptr @hf_fmp_msgNum, align 4
  %13 = tail call i32 @dissect_rpc_uint32(ptr noundef %0, ptr noundef %2, i32 noundef %12, i32 noundef %11)
  %14 = load i32, ptr @hf_fmp_cookie, align 4
  %15 = tail call i32 @dissect_rpc_uint32(ptr noundef %0, ptr noundef %2, i32 noundef %14, i32 noundef %13)
  %16 = load i32, ptr @hf_fmp_fileSize, align 4
  %17 = tail call i32 @dissect_rpc_uint64(ptr noundef %0, ptr noundef %2, i32 noundef %16, i32 noundef %15)
  %18 = load i32, ptr @hf_fmp_fsID, align 4
  %19 = tail call i32 @dissect_rpc_uint32(ptr noundef %0, ptr noundef %2, i32 noundef %18, i32 noundef %17)
  %20 = tail call fastcc i32 @dissect_fmp_extentListEx(ptr noundef %0, i32 noundef %19, ptr noundef %2)
  br label %21

21:                                               ; preds = %9, %4
  %.0 = phi i32 [ %20, %9 ], [ %6, %4 ]
  call void @llvm.lifetime.end.p0(i64 4, ptr nonnull %5) #3
  ret i32 %.0
}